ARM GAS  C:\Users\JOHNSO~1\AppData\Local\Temp\cc7mH7wm.s 			page 1


   1              		.cpu cortex-m0
   2              		.fpu softvfp
   3              		.eabi_attribute 20, 1
   4              		.eabi_attribute 21, 1
   5              		.eabi_attribute 23, 3
   6              		.eabi_attribute 24, 1
   7              		.eabi_attribute 25, 1
   8              		.eabi_attribute 26, 1
   9              		.eabi_attribute 30, 6
  10              		.eabi_attribute 34, 0
  11              		.eabi_attribute 18, 4
  12              		.code	16
  13              		.file	"INPUT_SELECT.c"
  14              		.text
  15              	.Ltext0:
  16              		.cfi_sections	.debug_frame
  17              		.section	.text.INPUT_SELECT_Write,"ax",%progbits
  18              		.align	2
  19              		.global	INPUT_SELECT_Write
  20              		.code	16
  21              		.thumb_func
  22              		.type	INPUT_SELECT_Write, %function
  23              	INPUT_SELECT_Write:
  24              	.LFB0:
  25              		.file 1 ".\\Generated_Source\\PSoC4\\INPUT_SELECT.c"
   1:.\Generated_Source\PSoC4/INPUT_SELECT.c **** /*******************************************************************************
   2:.\Generated_Source\PSoC4/INPUT_SELECT.c **** * File Name: INPUT_SELECT.c  
   3:.\Generated_Source\PSoC4/INPUT_SELECT.c **** * Version 2.10
   4:.\Generated_Source\PSoC4/INPUT_SELECT.c **** *
   5:.\Generated_Source\PSoC4/INPUT_SELECT.c **** * Description:
   6:.\Generated_Source\PSoC4/INPUT_SELECT.c **** *  This file contains API to enable firmware control of a Pins component.
   7:.\Generated_Source\PSoC4/INPUT_SELECT.c **** *
   8:.\Generated_Source\PSoC4/INPUT_SELECT.c **** * Note:
   9:.\Generated_Source\PSoC4/INPUT_SELECT.c **** *
  10:.\Generated_Source\PSoC4/INPUT_SELECT.c **** ********************************************************************************
  11:.\Generated_Source\PSoC4/INPUT_SELECT.c **** * Copyright 2008-2014, Cypress Semiconductor Corporation.  All rights reserved.
  12:.\Generated_Source\PSoC4/INPUT_SELECT.c **** * You may use this file only in accordance with the license, terms, conditions, 
  13:.\Generated_Source\PSoC4/INPUT_SELECT.c **** * disclaimers, and limitations in the end user license agreement accompanying 
  14:.\Generated_Source\PSoC4/INPUT_SELECT.c **** * the software package with which this file was provided.
  15:.\Generated_Source\PSoC4/INPUT_SELECT.c **** *******************************************************************************/
  16:.\Generated_Source\PSoC4/INPUT_SELECT.c **** 
  17:.\Generated_Source\PSoC4/INPUT_SELECT.c **** #include "cytypes.h"
  18:.\Generated_Source\PSoC4/INPUT_SELECT.c **** #include "INPUT_SELECT.h"
  19:.\Generated_Source\PSoC4/INPUT_SELECT.c **** 
  20:.\Generated_Source\PSoC4/INPUT_SELECT.c **** #define SetP4PinDriveMode(shift, mode)  \
  21:.\Generated_Source\PSoC4/INPUT_SELECT.c ****     do { \
  22:.\Generated_Source\PSoC4/INPUT_SELECT.c ****         INPUT_SELECT_PC =   (INPUT_SELECT_PC & \
  23:.\Generated_Source\PSoC4/INPUT_SELECT.c ****                                 (uint32)(~(uint32)(INPUT_SELECT_DRIVE_MODE_IND_MASK << (INPUT_SELEC
  24:.\Generated_Source\PSoC4/INPUT_SELECT.c ****                                 (uint32)((uint32)(mode) << (INPUT_SELECT_DRIVE_MODE_BITS * (shift))
  25:.\Generated_Source\PSoC4/INPUT_SELECT.c ****     } while (0)
  26:.\Generated_Source\PSoC4/INPUT_SELECT.c **** 
  27:.\Generated_Source\PSoC4/INPUT_SELECT.c **** 
  28:.\Generated_Source\PSoC4/INPUT_SELECT.c **** /*******************************************************************************
  29:.\Generated_Source\PSoC4/INPUT_SELECT.c **** * Function Name: INPUT_SELECT_Write
  30:.\Generated_Source\PSoC4/INPUT_SELECT.c **** ********************************************************************************
  31:.\Generated_Source\PSoC4/INPUT_SELECT.c **** *
  32:.\Generated_Source\PSoC4/INPUT_SELECT.c **** * Summary:
ARM GAS  C:\Users\JOHNSO~1\AppData\Local\Temp\cc7mH7wm.s 			page 2


  33:.\Generated_Source\PSoC4/INPUT_SELECT.c **** *  Assign a new value to the digital port's data output register.  
  34:.\Generated_Source\PSoC4/INPUT_SELECT.c **** *
  35:.\Generated_Source\PSoC4/INPUT_SELECT.c **** * Parameters:  
  36:.\Generated_Source\PSoC4/INPUT_SELECT.c **** *  prtValue:  The value to be assigned to the Digital Port. 
  37:.\Generated_Source\PSoC4/INPUT_SELECT.c **** *
  38:.\Generated_Source\PSoC4/INPUT_SELECT.c **** * Return: 
  39:.\Generated_Source\PSoC4/INPUT_SELECT.c **** *  None 
  40:.\Generated_Source\PSoC4/INPUT_SELECT.c **** *  
  41:.\Generated_Source\PSoC4/INPUT_SELECT.c **** *******************************************************************************/
  42:.\Generated_Source\PSoC4/INPUT_SELECT.c **** void INPUT_SELECT_Write(uint8 value) 
  43:.\Generated_Source\PSoC4/INPUT_SELECT.c **** {
  26              		.loc 1 43 0
  27              		.cfi_startproc
  28 0000 80B5     		push	{r7, lr}
  29              		.cfi_def_cfa_offset 8
  30              		.cfi_offset 7, -8
  31              		.cfi_offset 14, -4
  32 0002 84B0     		sub	sp, sp, #16
  33              		.cfi_def_cfa_offset 24
  34 0004 00AF     		add	r7, sp, #0
  35              		.cfi_def_cfa_register 7
  36 0006 021C     		mov	r2, r0
  37 0008 FB1D     		add	r3, r7, #7
  38 000a 1A70     		strb	r2, [r3]
  44:.\Generated_Source\PSoC4/INPUT_SELECT.c ****     uint8 drVal = (uint8)(INPUT_SELECT_DR & (uint8)(~INPUT_SELECT_MASK));
  39              		.loc 1 44 0
  40 000c 0E4B     		ldr	r3, .L2
  41 000e 1B68     		ldr	r3, [r3]
  42 0010 DAB2     		uxtb	r2, r3
  43 0012 3B1C     		mov	r3, r7
  44 0014 0F33     		add	r3, r3, #15
  45 0016 0621     		mov	r1, #6
  46 0018 8A43     		bic	r2, r1
  47 001a 1A70     		strb	r2, [r3]
  45:.\Generated_Source\PSoC4/INPUT_SELECT.c ****     drVal = (drVal | ((uint8)(value << INPUT_SELECT_SHIFT) & INPUT_SELECT_MASK));
  48              		.loc 1 45 0
  49 001c FB1D     		add	r3, r7, #7
  50 001e 1B78     		ldrb	r3, [r3]
  51 0020 DB18     		add	r3, r3, r3
  52 0022 DAB2     		uxtb	r2, r3
  53 0024 0623     		mov	r3, #6
  54 0026 1340     		and	r3, r2
  55 0028 D9B2     		uxtb	r1, r3
  56 002a 3B1C     		mov	r3, r7
  57 002c 0F33     		add	r3, r3, #15
  58 002e 3A1C     		mov	r2, r7
  59 0030 0F32     		add	r2, r2, #15
  60 0032 1278     		ldrb	r2, [r2]
  61 0034 0A43     		orr	r2, r1
  62 0036 1A70     		strb	r2, [r3]
  46:.\Generated_Source\PSoC4/INPUT_SELECT.c ****     INPUT_SELECT_DR = (uint32)drVal;
  63              		.loc 1 46 0
  64 0038 034B     		ldr	r3, .L2
  65 003a 3A1C     		mov	r2, r7
  66 003c 0F32     		add	r2, r2, #15
  67 003e 1278     		ldrb	r2, [r2]
  68 0040 1A60     		str	r2, [r3]
ARM GAS  C:\Users\JOHNSO~1\AppData\Local\Temp\cc7mH7wm.s 			page 3


  47:.\Generated_Source\PSoC4/INPUT_SELECT.c **** }
  69              		.loc 1 47 0
  70 0042 BD46     		mov	sp, r7
  71 0044 04B0     		add	sp, sp, #16
  72              		@ sp needed
  73 0046 80BD     		pop	{r7, pc}
  74              	.L3:
  75              		.align	2
  76              	.L2:
  77 0048 00020440 		.word	1074004480
  78              		.cfi_endproc
  79              	.LFE0:
  80              		.size	INPUT_SELECT_Write, .-INPUT_SELECT_Write
  81              		.section	.text.INPUT_SELECT_SetDriveMode,"ax",%progbits
  82              		.align	2
  83              		.global	INPUT_SELECT_SetDriveMode
  84              		.code	16
  85              		.thumb_func
  86              		.type	INPUT_SELECT_SetDriveMode, %function
  87              	INPUT_SELECT_SetDriveMode:
  88              	.LFB1:
  48:.\Generated_Source\PSoC4/INPUT_SELECT.c **** 
  49:.\Generated_Source\PSoC4/INPUT_SELECT.c **** 
  50:.\Generated_Source\PSoC4/INPUT_SELECT.c **** /*******************************************************************************
  51:.\Generated_Source\PSoC4/INPUT_SELECT.c **** * Function Name: INPUT_SELECT_SetDriveMode
  52:.\Generated_Source\PSoC4/INPUT_SELECT.c **** ********************************************************************************
  53:.\Generated_Source\PSoC4/INPUT_SELECT.c **** *
  54:.\Generated_Source\PSoC4/INPUT_SELECT.c **** * Summary:
  55:.\Generated_Source\PSoC4/INPUT_SELECT.c **** *  Change the drive mode on the pins of the port.
  56:.\Generated_Source\PSoC4/INPUT_SELECT.c **** * 
  57:.\Generated_Source\PSoC4/INPUT_SELECT.c **** * Parameters:  
  58:.\Generated_Source\PSoC4/INPUT_SELECT.c **** *  mode:  Change the pins to one of the following drive modes.
  59:.\Generated_Source\PSoC4/INPUT_SELECT.c **** *
  60:.\Generated_Source\PSoC4/INPUT_SELECT.c **** *  INPUT_SELECT_DM_STRONG     Strong Drive 
  61:.\Generated_Source\PSoC4/INPUT_SELECT.c **** *  INPUT_SELECT_DM_OD_HI      Open Drain, Drives High 
  62:.\Generated_Source\PSoC4/INPUT_SELECT.c **** *  INPUT_SELECT_DM_OD_LO      Open Drain, Drives Low 
  63:.\Generated_Source\PSoC4/INPUT_SELECT.c **** *  INPUT_SELECT_DM_RES_UP     Resistive Pull Up 
  64:.\Generated_Source\PSoC4/INPUT_SELECT.c **** *  INPUT_SELECT_DM_RES_DWN    Resistive Pull Down 
  65:.\Generated_Source\PSoC4/INPUT_SELECT.c **** *  INPUT_SELECT_DM_RES_UPDWN  Resistive Pull Up/Down 
  66:.\Generated_Source\PSoC4/INPUT_SELECT.c **** *  INPUT_SELECT_DM_DIG_HIZ    High Impedance Digital 
  67:.\Generated_Source\PSoC4/INPUT_SELECT.c **** *  INPUT_SELECT_DM_ALG_HIZ    High Impedance Analog 
  68:.\Generated_Source\PSoC4/INPUT_SELECT.c **** *
  69:.\Generated_Source\PSoC4/INPUT_SELECT.c **** * Return: 
  70:.\Generated_Source\PSoC4/INPUT_SELECT.c **** *  None
  71:.\Generated_Source\PSoC4/INPUT_SELECT.c **** *
  72:.\Generated_Source\PSoC4/INPUT_SELECT.c **** *******************************************************************************/
  73:.\Generated_Source\PSoC4/INPUT_SELECT.c **** void INPUT_SELECT_SetDriveMode(uint8 mode) 
  74:.\Generated_Source\PSoC4/INPUT_SELECT.c **** {
  89              		.loc 1 74 0
  90              		.cfi_startproc
  91 0000 80B5     		push	{r7, lr}
  92              		.cfi_def_cfa_offset 8
  93              		.cfi_offset 7, -8
  94              		.cfi_offset 14, -4
  95 0002 82B0     		sub	sp, sp, #8
  96              		.cfi_def_cfa_offset 16
  97 0004 00AF     		add	r7, sp, #0
ARM GAS  C:\Users\JOHNSO~1\AppData\Local\Temp\cc7mH7wm.s 			page 4


  98              		.cfi_def_cfa_register 7
  99 0006 021C     		mov	r2, r0
 100 0008 FB1D     		add	r3, r7, #7
 101 000a 1A70     		strb	r2, [r3]
  75:.\Generated_Source\PSoC4/INPUT_SELECT.c **** 	SetP4PinDriveMode(INPUT_SELECT__0__SHIFT, mode);
 102              		.loc 1 75 0
 103 000c 0C4B     		ldr	r3, .L5
 104 000e 0C4A     		ldr	r2, .L5
 105 0010 1268     		ldr	r2, [r2]
 106 0012 3821     		mov	r1, #56
 107 0014 101C     		mov	r0, r2
 108 0016 8843     		bic	r0, r1
 109 0018 011C     		mov	r1, r0
 110 001a FA1D     		add	r2, r7, #7
 111 001c 1278     		ldrb	r2, [r2]
 112 001e D200     		lsl	r2, r2, #3
 113 0020 0A43     		orr	r2, r1
 114 0022 1A60     		str	r2, [r3]
  76:.\Generated_Source\PSoC4/INPUT_SELECT.c **** 	SetP4PinDriveMode(INPUT_SELECT__1__SHIFT, mode);
 115              		.loc 1 76 0
 116 0024 064B     		ldr	r3, .L5
 117 0026 064A     		ldr	r2, .L5
 118 0028 1168     		ldr	r1, [r2]
 119 002a 064A     		ldr	r2, .L5+4
 120 002c 1140     		and	r1, r2
 121 002e FA1D     		add	r2, r7, #7
 122 0030 1278     		ldrb	r2, [r2]
 123 0032 9201     		lsl	r2, r2, #6
 124 0034 0A43     		orr	r2, r1
 125 0036 1A60     		str	r2, [r3]
  77:.\Generated_Source\PSoC4/INPUT_SELECT.c **** }
 126              		.loc 1 77 0
 127 0038 BD46     		mov	sp, r7
 128 003a 02B0     		add	sp, sp, #8
 129              		@ sp needed
 130 003c 80BD     		pop	{r7, pc}
 131              	.L6:
 132 003e C046     		.align	2
 133              	.L5:
 134 0040 08020440 		.word	1074004488
 135 0044 3FFEFFFF 		.word	-449
 136              		.cfi_endproc
 137              	.LFE1:
 138              		.size	INPUT_SELECT_SetDriveMode, .-INPUT_SELECT_SetDriveMode
 139              		.section	.text.INPUT_SELECT_Read,"ax",%progbits
 140              		.align	2
 141              		.global	INPUT_SELECT_Read
 142              		.code	16
 143              		.thumb_func
 144              		.type	INPUT_SELECT_Read, %function
 145              	INPUT_SELECT_Read:
 146              	.LFB2:
  78:.\Generated_Source\PSoC4/INPUT_SELECT.c **** 
  79:.\Generated_Source\PSoC4/INPUT_SELECT.c **** 
  80:.\Generated_Source\PSoC4/INPUT_SELECT.c **** /*******************************************************************************
  81:.\Generated_Source\PSoC4/INPUT_SELECT.c **** * Function Name: INPUT_SELECT_Read
  82:.\Generated_Source\PSoC4/INPUT_SELECT.c **** ********************************************************************************
ARM GAS  C:\Users\JOHNSO~1\AppData\Local\Temp\cc7mH7wm.s 			page 5


  83:.\Generated_Source\PSoC4/INPUT_SELECT.c **** *
  84:.\Generated_Source\PSoC4/INPUT_SELECT.c **** * Summary:
  85:.\Generated_Source\PSoC4/INPUT_SELECT.c **** *  Read the current value on the pins of the Digital Port in right justified 
  86:.\Generated_Source\PSoC4/INPUT_SELECT.c **** *  form.
  87:.\Generated_Source\PSoC4/INPUT_SELECT.c **** *
  88:.\Generated_Source\PSoC4/INPUT_SELECT.c **** * Parameters:  
  89:.\Generated_Source\PSoC4/INPUT_SELECT.c **** *  None 
  90:.\Generated_Source\PSoC4/INPUT_SELECT.c **** *
  91:.\Generated_Source\PSoC4/INPUT_SELECT.c **** * Return: 
  92:.\Generated_Source\PSoC4/INPUT_SELECT.c **** *  Returns the current value of the Digital Port as a right justified number
  93:.\Generated_Source\PSoC4/INPUT_SELECT.c **** *  
  94:.\Generated_Source\PSoC4/INPUT_SELECT.c **** * Note:
  95:.\Generated_Source\PSoC4/INPUT_SELECT.c **** *  Macro INPUT_SELECT_ReadPS calls this function. 
  96:.\Generated_Source\PSoC4/INPUT_SELECT.c **** *  
  97:.\Generated_Source\PSoC4/INPUT_SELECT.c **** *******************************************************************************/
  98:.\Generated_Source\PSoC4/INPUT_SELECT.c **** uint8 INPUT_SELECT_Read(void) 
  99:.\Generated_Source\PSoC4/INPUT_SELECT.c **** {
 147              		.loc 1 99 0
 148              		.cfi_startproc
 149 0000 80B5     		push	{r7, lr}
 150              		.cfi_def_cfa_offset 8
 151              		.cfi_offset 7, -8
 152              		.cfi_offset 14, -4
 153 0002 00AF     		add	r7, sp, #0
 154              		.cfi_def_cfa_register 7
 100:.\Generated_Source\PSoC4/INPUT_SELECT.c ****     return (uint8)((INPUT_SELECT_PS & INPUT_SELECT_MASK) >> INPUT_SELECT_SHIFT);
 155              		.loc 1 100 0
 156 0004 044B     		ldr	r3, .L9
 157 0006 1A68     		ldr	r2, [r3]
 158 0008 0623     		mov	r3, #6
 159 000a 1340     		and	r3, r2
 160 000c 5B08     		lsr	r3, r3, #1
 161 000e DBB2     		uxtb	r3, r3
 101:.\Generated_Source\PSoC4/INPUT_SELECT.c **** }
 162              		.loc 1 101 0
 163 0010 181C     		mov	r0, r3
 164 0012 BD46     		mov	sp, r7
 165              		@ sp needed
 166 0014 80BD     		pop	{r7, pc}
 167              	.L10:
 168 0016 C046     		.align	2
 169              	.L9:
 170 0018 04020440 		.word	1074004484
 171              		.cfi_endproc
 172              	.LFE2:
 173              		.size	INPUT_SELECT_Read, .-INPUT_SELECT_Read
 174              		.section	.text.INPUT_SELECT_ReadDataReg,"ax",%progbits
 175              		.align	2
 176              		.global	INPUT_SELECT_ReadDataReg
 177              		.code	16
 178              		.thumb_func
 179              		.type	INPUT_SELECT_ReadDataReg, %function
 180              	INPUT_SELECT_ReadDataReg:
 181              	.LFB3:
 102:.\Generated_Source\PSoC4/INPUT_SELECT.c **** 
 103:.\Generated_Source\PSoC4/INPUT_SELECT.c **** 
 104:.\Generated_Source\PSoC4/INPUT_SELECT.c **** /*******************************************************************************
ARM GAS  C:\Users\JOHNSO~1\AppData\Local\Temp\cc7mH7wm.s 			page 6


 105:.\Generated_Source\PSoC4/INPUT_SELECT.c **** * Function Name: INPUT_SELECT_ReadDataReg
 106:.\Generated_Source\PSoC4/INPUT_SELECT.c **** ********************************************************************************
 107:.\Generated_Source\PSoC4/INPUT_SELECT.c **** *
 108:.\Generated_Source\PSoC4/INPUT_SELECT.c **** * Summary:
 109:.\Generated_Source\PSoC4/INPUT_SELECT.c **** *  Read the current value assigned to a Digital Port's data output register
 110:.\Generated_Source\PSoC4/INPUT_SELECT.c **** *
 111:.\Generated_Source\PSoC4/INPUT_SELECT.c **** * Parameters:  
 112:.\Generated_Source\PSoC4/INPUT_SELECT.c **** *  None 
 113:.\Generated_Source\PSoC4/INPUT_SELECT.c **** *
 114:.\Generated_Source\PSoC4/INPUT_SELECT.c **** * Return: 
 115:.\Generated_Source\PSoC4/INPUT_SELECT.c **** *  Returns the current value assigned to the Digital Port's data output register
 116:.\Generated_Source\PSoC4/INPUT_SELECT.c **** *  
 117:.\Generated_Source\PSoC4/INPUT_SELECT.c **** *******************************************************************************/
 118:.\Generated_Source\PSoC4/INPUT_SELECT.c **** uint8 INPUT_SELECT_ReadDataReg(void) 
 119:.\Generated_Source\PSoC4/INPUT_SELECT.c **** {
 182              		.loc 1 119 0
 183              		.cfi_startproc
 184 0000 80B5     		push	{r7, lr}
 185              		.cfi_def_cfa_offset 8
 186              		.cfi_offset 7, -8
 187              		.cfi_offset 14, -4
 188 0002 00AF     		add	r7, sp, #0
 189              		.cfi_def_cfa_register 7
 120:.\Generated_Source\PSoC4/INPUT_SELECT.c ****     return (uint8)((INPUT_SELECT_DR & INPUT_SELECT_MASK) >> INPUT_SELECT_SHIFT);
 190              		.loc 1 120 0
 191 0004 044B     		ldr	r3, .L13
 192 0006 1A68     		ldr	r2, [r3]
 193 0008 0623     		mov	r3, #6
 194 000a 1340     		and	r3, r2
 195 000c 5B08     		lsr	r3, r3, #1
 196 000e DBB2     		uxtb	r3, r3
 121:.\Generated_Source\PSoC4/INPUT_SELECT.c **** }
 197              		.loc 1 121 0
 198 0010 181C     		mov	r0, r3
 199 0012 BD46     		mov	sp, r7
 200              		@ sp needed
 201 0014 80BD     		pop	{r7, pc}
 202              	.L14:
 203 0016 C046     		.align	2
 204              	.L13:
 205 0018 00020440 		.word	1074004480
 206              		.cfi_endproc
 207              	.LFE3:
 208              		.size	INPUT_SELECT_ReadDataReg, .-INPUT_SELECT_ReadDataReg
 209              		.section	.text.INPUT_SELECT_ClearInterrupt,"ax",%progbits
 210              		.align	2
 211              		.global	INPUT_SELECT_ClearInterrupt
 212              		.code	16
 213              		.thumb_func
 214              		.type	INPUT_SELECT_ClearInterrupt, %function
 215              	INPUT_SELECT_ClearInterrupt:
 216              	.LFB4:
 122:.\Generated_Source\PSoC4/INPUT_SELECT.c **** 
 123:.\Generated_Source\PSoC4/INPUT_SELECT.c **** 
 124:.\Generated_Source\PSoC4/INPUT_SELECT.c **** /* If Interrupts Are Enabled for this Pins component */ 
 125:.\Generated_Source\PSoC4/INPUT_SELECT.c **** #if defined(INPUT_SELECT_INTSTAT) 
 126:.\Generated_Source\PSoC4/INPUT_SELECT.c **** 
ARM GAS  C:\Users\JOHNSO~1\AppData\Local\Temp\cc7mH7wm.s 			page 7


 127:.\Generated_Source\PSoC4/INPUT_SELECT.c ****     /*******************************************************************************
 128:.\Generated_Source\PSoC4/INPUT_SELECT.c ****     * Function Name: INPUT_SELECT_ClearInterrupt
 129:.\Generated_Source\PSoC4/INPUT_SELECT.c ****     ********************************************************************************
 130:.\Generated_Source\PSoC4/INPUT_SELECT.c ****     *
 131:.\Generated_Source\PSoC4/INPUT_SELECT.c ****     * Summary:
 132:.\Generated_Source\PSoC4/INPUT_SELECT.c ****     *  Clears any active interrupts attached to port and returns the value of the 
 133:.\Generated_Source\PSoC4/INPUT_SELECT.c ****     *  interrupt status register.
 134:.\Generated_Source\PSoC4/INPUT_SELECT.c ****     *
 135:.\Generated_Source\PSoC4/INPUT_SELECT.c ****     * Parameters:  
 136:.\Generated_Source\PSoC4/INPUT_SELECT.c ****     *  None 
 137:.\Generated_Source\PSoC4/INPUT_SELECT.c ****     *
 138:.\Generated_Source\PSoC4/INPUT_SELECT.c ****     * Return: 
 139:.\Generated_Source\PSoC4/INPUT_SELECT.c ****     *  Returns the value of the interrupt status register
 140:.\Generated_Source\PSoC4/INPUT_SELECT.c ****     *  
 141:.\Generated_Source\PSoC4/INPUT_SELECT.c ****     *******************************************************************************/
 142:.\Generated_Source\PSoC4/INPUT_SELECT.c ****     uint8 INPUT_SELECT_ClearInterrupt(void) 
 143:.\Generated_Source\PSoC4/INPUT_SELECT.c ****     {
 217              		.loc 1 143 0
 218              		.cfi_startproc
 219 0000 80B5     		push	{r7, lr}
 220              		.cfi_def_cfa_offset 8
 221              		.cfi_offset 7, -8
 222              		.cfi_offset 14, -4
 223 0002 82B0     		sub	sp, sp, #8
 224              		.cfi_def_cfa_offset 16
 225 0004 00AF     		add	r7, sp, #0
 226              		.cfi_def_cfa_register 7
 144:.\Generated_Source\PSoC4/INPUT_SELECT.c **** 		uint8 maskedStatus = (uint8)(INPUT_SELECT_INTSTAT & INPUT_SELECT_MASK);
 227              		.loc 1 144 0
 228 0006 094B     		ldr	r3, .L17
 229 0008 1B68     		ldr	r3, [r3]
 230 000a D9B2     		uxtb	r1, r3
 231 000c FB1D     		add	r3, r7, #7
 232 000e 0622     		mov	r2, #6
 233 0010 0A40     		and	r2, r1
 234 0012 1A70     		strb	r2, [r3]
 145:.\Generated_Source\PSoC4/INPUT_SELECT.c **** 		INPUT_SELECT_INTSTAT = maskedStatus;
 235              		.loc 1 145 0
 236 0014 054B     		ldr	r3, .L17
 237 0016 FA1D     		add	r2, r7, #7
 238 0018 1278     		ldrb	r2, [r2]
 239 001a 1A60     		str	r2, [r3]
 146:.\Generated_Source\PSoC4/INPUT_SELECT.c ****         return maskedStatus >> INPUT_SELECT_SHIFT;
 240              		.loc 1 146 0
 241 001c FB1D     		add	r3, r7, #7
 242 001e 1B78     		ldrb	r3, [r3]
 243 0020 5B08     		lsr	r3, r3, #1
 244 0022 DBB2     		uxtb	r3, r3
 147:.\Generated_Source\PSoC4/INPUT_SELECT.c ****     }
 245              		.loc 1 147 0
 246 0024 181C     		mov	r0, r3
 247 0026 BD46     		mov	sp, r7
 248 0028 02B0     		add	sp, sp, #8
 249              		@ sp needed
 250 002a 80BD     		pop	{r7, pc}
 251              	.L18:
 252              		.align	2
ARM GAS  C:\Users\JOHNSO~1\AppData\Local\Temp\cc7mH7wm.s 			page 8


 253              	.L17:
 254 002c 10020440 		.word	1074004496
 255              		.cfi_endproc
 256              	.LFE4:
 257              		.size	INPUT_SELECT_ClearInterrupt, .-INPUT_SELECT_ClearInterrupt
 258              		.text
 259              	.Letext0:
 260              		.file 2 ".\\Generated_Source\\PSoC4\\cytypes.h"