ARM GAS  C:\Users\Jacob\AppData\Local\Temp\ccxeCWVd.s 			page 1


   1              		.cpu cortex-m0
   2              		.fpu softvfp
   3              		.eabi_attribute 20, 1
   4              		.eabi_attribute 21, 1
   5              		.eabi_attribute 23, 3
   6              		.eabi_attribute 24, 1
   7              		.eabi_attribute 25, 1
   8              		.eabi_attribute 26, 1
   9              		.eabi_attribute 30, 6
  10              		.eabi_attribute 34, 0
  11              		.eabi_attribute 18, 4
  12              		.code	16
  13              		.file	"main.c"
  14              		.text
  15              	.Ltext0:
  16              		.cfi_sections	.debug_frame
  17              		.section	.text.main,"ax",%progbits
  18              		.align	2
  19              		.global	main
  20              		.code	16
  21              		.thumb_func
  22              		.type	main, %function
  23              	main:
  24              	.LFB33:
  25              		.file 1 ".\\main.c"
   1:.\main.c      **** /* ========================================
   2:.\main.c      ****  *
   3:.\main.c      ****  * Copyright YOUR COMPANY, THE YEAR
   4:.\main.c      ****  * All Rights Reserved
   5:.\main.c      ****  * UNPUBLISHED, LICENSED SOFTWARE.
   6:.\main.c      ****  *
   7:.\main.c      ****  * CONFIDENTIAL AND PROPRIETARY INFORMATION
   8:.\main.c      ****  * WHICH IS THE PROPERTY OF your company.
   9:.\main.c      ****  *
  10:.\main.c      ****  * ========================================
  11:.\main.c      **** */
  12:.\main.c      **** #include <project.h>
  13:.\main.c      **** 
  14:.\main.c      **** int main()
  15:.\main.c      **** {
  26              		.loc 1 15 0
  27              		.cfi_startproc
  28 0000 80B5     		push	{r7, lr}
  29              		.cfi_def_cfa_offset 8
  30              		.cfi_offset 7, -8
  31              		.cfi_offset 14, -4
  32 0002 82B0     		sub	sp, sp, #8
  33              		.cfi_def_cfa_offset 16
  34 0004 00AF     		add	r7, sp, #0
  35              		.cfi_def_cfa_register 7
  16:.\main.c      ****     Mux_timer_Start();
  36              		.loc 1 16 0
  37 0006 FFF7FEFF 		bl	Mux_timer_Start
  17:.\main.c      ****     Arm_select_timer_Start();
  38              		.loc 1 17 0
  39 000a FFF7FEFF 		bl	Arm_select_timer_Start
  18:.\main.c      ****     Default_PWM_Start();
ARM GAS  C:\Users\Jacob\AppData\Local\Temp\ccxeCWVd.s 			page 2


  40              		.loc 1 18 0
  41 000e FFF7FEFF 		bl	Default_PWM_Start
  42              	.L8:
  43              	.LBB2:
  19:.\main.c      ****     
  20:.\main.c      **** 
  21:.\main.c      ****     /* CyGlobalIntEnable; */ /* Uncomment this line to enable global interrupts. */
  22:.\main.c      ****     for(;;)
  23:.\main.c      ****     {
  24:.\main.c      **** 
  25:.\main.c      ****         uint16 timer1 = Mux_timer_ReadCapture();
  44              		.loc 1 25 0
  45 0012 FFF7FEFF 		bl	Mux_timer_ReadCapture
  46 0016 021C     		mov	r2, r0
  47 0018 BB1D     		add	r3, r7, #6
  48 001a 1A80     		strh	r2, [r3]
  26:.\main.c      ****         uint16 arm_select_value = Arm_select_timer_ReadCapture();
  49              		.loc 1 26 0
  50 001c FFF7FEFF 		bl	Arm_select_timer_ReadCapture
  51 0020 021C     		mov	r2, r0
  52 0022 3B1D     		add	r3, r7, #4
  53 0024 1A80     		strh	r2, [r3]
  27:.\main.c      ****       
  28:.\main.c      ****        
  29:.\main.c      ****             if (timer1 >= 500 && timer1 <= 2500)
  54              		.loc 1 29 0
  55 0026 BB1D     		add	r3, r7, #6
  56 0028 1A88     		ldrh	r2, [r3]
  57 002a F423     		mov	r3, #244
  58 002c FF33     		add	r3, r3, #255
  59 002e 9A42     		cmp	r2, r3
  60 0030 38D9     		bls	.L2
  61              		.loc 1 29 0 is_stmt 0 discriminator 1
  62 0032 BB1D     		add	r3, r7, #6
  63 0034 1A88     		ldrh	r2, [r3]
  64 0036 214B     		ldr	r3, .L9
  65 0038 9A42     		cmp	r2, r3
  66 003a 33D8     		bhi	.L2
  30:.\main.c      ****             {
  31:.\main.c      ****                 if (timer1 > 1700)
  67              		.loc 1 31 0 is_stmt 1
  68 003c BB1D     		add	r3, r7, #6
  69 003e 1A88     		ldrh	r2, [r3]
  70 0040 1F4B     		ldr	r3, .L9+4
  71 0042 9A42     		cmp	r2, r3
  72 0044 23D9     		bls	.L3
  32:.\main.c      ****                 {
  33:.\main.c      ****                     if(arm_select_value >= 500 && arm_select_value <= 2500 && arm_select_value > 17
  73              		.loc 1 33 0
  74 0046 3B1D     		add	r3, r7, #4
  75 0048 1A88     		ldrh	r2, [r3]
  76 004a F423     		mov	r3, #244
  77 004c FF33     		add	r3, r3, #255
  78 004e 9A42     		cmp	r2, r3
  79 0050 13D9     		bls	.L4
  80              		.loc 1 33 0 is_stmt 0 discriminator 1
  81 0052 3B1D     		add	r3, r7, #4
ARM GAS  C:\Users\Jacob\AppData\Local\Temp\ccxeCWVd.s 			page 3


  82 0054 1A88     		ldrh	r2, [r3]
  83 0056 194B     		ldr	r3, .L9
  84 0058 9A42     		cmp	r2, r3
  85 005a 0ED8     		bhi	.L4
  86 005c 3B1D     		add	r3, r7, #4
  87 005e 1A88     		ldrh	r2, [r3]
  88 0060 174B     		ldr	r3, .L9+4
  89 0062 9A42     		cmp	r2, r3
  90 0064 09D9     		bls	.L4
  34:.\main.c      ****                     {
  35:.\main.c      ****                         LED_Write(1);
  91              		.loc 1 35 0 is_stmt 1
  92 0066 0120     		mov	r0, #1
  93 0068 FFF7FEFF 		bl	LED_Write
  36:.\main.c      ****                         INPUT_SELECT_Write(1);
  94              		.loc 1 36 0
  95 006c 0120     		mov	r0, #1
  96 006e FFF7FEFF 		bl	INPUT_SELECT_Write
  37:.\main.c      ****                         Arm_select_Write(1);
  97              		.loc 1 37 0
  98 0072 0120     		mov	r0, #1
  99 0074 FFF7FEFF 		bl	Arm_select_Write
 100 0078 13E0     		b	.L6
 101              	.L4:
  38:.\main.c      ****                     }
  39:.\main.c      ****                     else
  40:.\main.c      ****                     {
  41:.\main.c      ****                         Arm_select_Write(0);
 102              		.loc 1 41 0
 103 007a 0020     		mov	r0, #0
 104 007c FFF7FEFF 		bl	Arm_select_Write
  42:.\main.c      ****                         LED_Write(0);
 105              		.loc 1 42 0
 106 0080 0020     		mov	r0, #0
 107 0082 FFF7FEFF 		bl	LED_Write
  43:.\main.c      ****                         INPUT_SELECT_Write(3);
 108              		.loc 1 43 0
 109 0086 0320     		mov	r0, #3
 110 0088 FFF7FEFF 		bl	INPUT_SELECT_Write
 111 008c 09E0     		b	.L6
 112              	.L3:
  44:.\main.c      ****                     }
  45:.\main.c      ****                         
  46:.\main.c      ****                     
  47:.\main.c      ****                 }
  48:.\main.c      ****                 else
  49:.\main.c      ****                 {
  50:.\main.c      ****                     LED_Write(0);
 113              		.loc 1 50 0
 114 008e 0020     		mov	r0, #0
 115 0090 FFF7FEFF 		bl	LED_Write
  51:.\main.c      ****                     INPUT_SELECT_Write(0);
 116              		.loc 1 51 0
 117 0094 0020     		mov	r0, #0
 118 0096 FFF7FEFF 		bl	INPUT_SELECT_Write
  52:.\main.c      ****                     Arm_select_Write(0);
 119              		.loc 1 52 0
ARM GAS  C:\Users\Jacob\AppData\Local\Temp\ccxeCWVd.s 			page 4


 120 009a 0020     		mov	r0, #0
 121 009c FFF7FEFF 		bl	Arm_select_Write
  31:.\main.c      ****                 if (timer1 > 1700)
 122              		.loc 1 31 0
 123 00a0 0AE0     		b	.L7
 124              	.L6:
 125 00a2 09E0     		b	.L7
 126              	.L2:
  53:.\main.c      ****                 }
  54:.\main.c      ****             }
  55:.\main.c      ****             else
  56:.\main.c      ****             {
  57:.\main.c      ****                 INPUT_SELECT_Write(0);
 127              		.loc 1 57 0
 128 00a4 0020     		mov	r0, #0
 129 00a6 FFF7FEFF 		bl	INPUT_SELECT_Write
  58:.\main.c      ****                 LED_Write(0);
 130              		.loc 1 58 0
 131 00aa 0020     		mov	r0, #0
 132 00ac FFF7FEFF 		bl	LED_Write
  59:.\main.c      ****                 Arm_select_Write(0);
 133              		.loc 1 59 0
 134 00b0 0020     		mov	r0, #0
 135 00b2 FFF7FEFF 		bl	Arm_select_Write
 136              	.LBE2:
  60:.\main.c      ****             }       
  61:.\main.c      ****             
  62:.\main.c      ****     }
 137              		.loc 1 62 0
 138 00b6 ACE7     		b	.L8
 139              	.L7:
 140 00b8 ABE7     		b	.L8
 141              	.L10:
 142 00ba C046     		.align	2
 143              	.L9:
 144 00bc C4090000 		.word	2500
 145 00c0 A4060000 		.word	1700
 146              		.cfi_endproc
 147              	.LFE33:
 148              		.size	main, .-main
 149              		.text
 150              	.Letext0:
 151              		.file 2 ".\\Generated_Source\\PSoC4/cytypes.h"